; Function Attrs: mustprogress uwtable
define noundef i32 @_ZNK6icu_7519CollationRuleParser14skipWhiteSpaceEi(ptr nocapture noundef nonnull readonly align 8 dereferenceable(76) %this, i32 noundef %i) local_unnamed_addr #1 align 2 {
entry:
  %rules = getelementptr inbounds i8, ptr %this, i64 16
  %0 = load ptr, ptr %rules, align 8
  %fUnion.i.i5 = getelementptr inbounds i8, ptr %0, i64 8
  %1 = load i16, ptr %fUnion.i.i5, align 8
  %cmp.i.i6 = icmp slt i16 %1, 0
  %2 = ashr i16 %1, 5
  %shr.i.i7 = sext i16 %2 to i32
  %fLength.i8 = getelementptr inbounds i8, ptr %0, i64 12
  %3 = load i32, ptr %fLength.i8, align 4
  %cond.i9 = select i1 %cmp.i.i6, i32 %3, i32 %shr.i.i7
  %cmp10 = icmp sgt i32 %cond.i9, %i
  br i1 %cmp10, label %land.rhs.preheader, label %while.end

land.rhs.preheader:                               ; preds = %entry
  %4 = sext i32 %i to i64
  br label %land.rhs

land.rhs:                                         ; preds = %land.rhs.preheader, %while.body
  %indvars.iv = phi i64 [ %4, %land.rhs.preheader ], [ %indvars.iv.next, %while.body ]
  %cond.i12 = phi i32 [ %cond.i9, %land.rhs.preheader ], [ %cond.i, %while.body ]
  %5 = phi i16 [ %1, %land.rhs.preheader ], [ %12, %while.body ]
  %6 = phi ptr [ %0, %land.rhs.preheader ], [ %11, %while.body ]
  %i.addr.011 = phi i32 [ %i, %land.rhs.preheader ], [ %inc, %while.body ]
  %7 = trunc i64 %indvars.iv to i32
  %cmp.i.i4 = icmp ugt i32 %cond.i12, %7
  br i1 %cmp.i.i4, label %if.then.i.i, label %_ZNK6icu_7513UnicodeString6charAtEi.exit

if.then.i.i:                                      ; preds = %land.rhs
  %8 = and i16 %5, 2
  %tobool.not.i.i.i = icmp eq i16 %8, 0
  %fBuffer.i.i.i = getelementptr inbounds i8, ptr %6, i64 10
  %fArray.i.i.i = getelementptr inbounds i8, ptr %6, i64 24
  %9 = load ptr, ptr %fArray.i.i.i, align 8
  %cond.i2.i.i = select i1 %tobool.not.i.i.i, ptr %9, ptr %fBuffer.i.i.i
  %arrayidx.i.i = getelementptr inbounds i16, ptr %cond.i2.i.i, i64 %indvars.iv
  %10 = load i16, ptr %arrayidx.i.i, align 2
  br label %_ZNK6icu_7513UnicodeString6charAtEi.exit

_ZNK6icu_7513UnicodeString6charAtEi.exit:         ; preds = %land.rhs, %if.then.i.i
  %retval.0.i.i = phi i16 [ %10, %if.then.i.i ], [ -1, %land.rhs ]
  %conv = zext i16 %retval.0.i.i to i32
  %call4 = tail call noundef signext i8 @_ZN6icu_7512PatternProps12isWhiteSpaceEi(i32 noundef %conv)
  %tobool.not = icmp eq i8 %call4, 0
  br i1 %tobool.not, label %while.end, label %while.body

while.body:                                       ; preds = %_ZNK6icu_7513UnicodeString6charAtEi.exit
  %indvars.iv.next = add nsw i64 %indvars.iv, 1
  %inc = add nsw i32 %i.addr.011, 1
  %11 = load ptr, ptr %rules, align 8
  %fUnion.i.i = getelementptr inbounds i8, ptr %11, i64 8
  %12 = load i16, ptr %fUnion.i.i, align 8
  %cmp.i.i = icmp slt i16 %12, 0
  %13 = ashr i16 %12, 5
  %shr.i.i = sext i16 %13 to i32
  %fLength.i = getelementptr inbounds i8, ptr %11, i64 12
  %14 = load i32, ptr %fLength.i, align 4
  %cond.i = select i1 %cmp.i.i, i32 %14, i32 %shr.i.i
  %15 = sext i32 %cond.i to i64
  %cmp = icmp slt i64 %indvars.iv.next, %15
  br i1 %cmp, label %land.rhs, label %while.end, !llvm.loop !10

while.end:                                        ; preds = %_ZNK6icu_7513UnicodeString6charAtEi.exit, %while.body, %entry
  %i.addr.0.lcssa = phi i32 [ %i, %entry ], [ %inc, %while.body ], [ %7, %_ZNK6icu_7513UnicodeString6charAtEi.exit ]
  ret i32 %i.addr.0.lcssa
}